; Function Attrs: mustprogress uwtable
define noundef zeroext i1 @_ZN7rocksdb30WriteUnpreparedTxnReadCallback18IsVisibleFullCheckEm(ptr noundef nonnull align 8 captures(none) dereferenceable(51) %0, i64 noundef %1) unnamed_addr #4 align 2 {
  %3 = alloca i8, align 1
  %4 = getelementptr inbounds nuw i8, ptr %0, i64 32
  %5 = load ptr, ptr %4, align 8, !tbaa !18
  %6 = getelementptr inbounds nuw i8, ptr %5, i64 24
  %7 = load ptr, ptr %6, align 8, !tbaa !25
  %8 = getelementptr inbounds nuw i8, ptr %5, i64 8
  %.not2223 = icmp eq ptr %7, %8
  br i1 %.not2223, label %._crit_edge, label %.lr.ph

.lr.ph:                                           ; preds = %2, %.critedge
  %.sroa.016.024 = phi ptr [ %16, %.critedge ], [ %7, %2 ]
  %9 = getelementptr inbounds nuw i8, ptr %.sroa.016.024, i64 32
  %10 = load i64, ptr %9, align 8, !tbaa !30
  %.not = icmp ugt i64 %10, %1
  br i1 %.not, label %.critedge, label %11

11:                                               ; preds = %.lr.ph
  %12 = getelementptr inbounds nuw i8, ptr %.sroa.016.024, i64 40
  %13 = load i64, ptr %12, align 8, !tbaa !32
  %14 = add i64 %13, %10
  %15 = icmp ult i64 %1, %14
  br i1 %15, label %.loopexit, label %.critedge

.critedge:                                        ; preds = %11, %.lr.ph
  %16 = tail call noundef ptr @_ZSt18_Rb_tree_incrementPKSt18_Rb_tree_node_base(ptr noundef nonnull %.sroa.016.024) #27
  %.not22 = icmp eq ptr %16, %8
  br i1 %.not22, label %._crit_edge, label %.lr.ph

._crit_edge:                                      ; preds = %.critedge, %2
  call void @llvm.lifetime.start.p0(i64 1, ptr nonnull %3) #28
  store i8 0, ptr %3, align 1, !tbaa !33
  %17 = getelementptr inbounds nuw i8, ptr %0, i64 24
  %18 = load ptr, ptr %17, align 8, !tbaa !34
  %19 = getelementptr inbounds nuw i8, ptr %0, i64 40
  %20 = load i64, ptr %19, align 8, !tbaa !35
  %21 = getelementptr inbounds nuw i8, ptr %0, i64 16
  %22 = load i64, ptr %21, align 8, !tbaa !36
  %23 = call noundef zeroext i1 @_ZNK7rocksdb18WritePreparedTxnDB12IsInSnapshotEmmmPb(ptr noundef nonnull align 8 dereferenceable(1392) %18, i64 noundef %1, i64 noundef %20, i64 noundef %22, ptr noundef nonnull %3)
  %24 = load i8, ptr %3, align 1, !tbaa !33, !range !37, !noundef !38
  %25 = getelementptr inbounds nuw i8, ptr %0, i64 49
  %26 = load i8, ptr %25, align 1, !tbaa !39, !range !37, !noundef !38
  %27 = or i8 %26, %24
  store i8 %27, ptr %25, align 1, !tbaa !39
  call void @llvm.lifetime.end.p0(i64 1, ptr nonnull %3) #28
  br label %.loopexit

.loopexit:                                        ; preds = %11, %._crit_edge
  %.3 = phi i1 [ %23, %._crit_edge ], [ true, %11 ]
  ret i1 %.3
}